; Function Attrs: nounwind uwtable
define dso_local noundef i32 @anetSetBlock(ptr noundef %err, i32 noundef %fd, i32 noundef %non_block) local_unnamed_addr #0 {
entry:
  %call = tail call i32 (i32, i32, ...) @fcntl64(i32 noundef %fd, i32 noundef 3) #10
  %cmp = icmp eq i32 %call, -1
  br i1 %cmp, label %return.sink.split, label %if.end

if.end:                                           ; preds = %entry
  %tobool4 = icmp ne i32 %non_block, 0
  %0 = and i32 %call, 2048
  %1 = icmp eq i32 %0, 0
  %cmp9 = xor i1 %tobool4, %1
  br i1 %cmp9, label %return, label %if.end11

if.end11:                                         ; preds = %if.end
  %and14 = and i32 %call, -2049
  %masksel = select i1 %tobool4, i32 2048, i32 0
  %flags.0 = or disjoint i32 %and14, %masksel
  %call16 = tail call i32 (i32, i32, ...) @fcntl64(i32 noundef %fd, i32 noundef 4, i32 noundef %flags.0) #10
  %cmp17 = icmp eq i32 %call16, -1
  br i1 %cmp17, label %return.sink.split, label %return

return.sink.split:                                ; preds = %if.end11, %entry
  %.str.1.sink = phi ptr [ @.str, %entry ], [ @.str.1, %if.end11 ]
  %call19 = tail call ptr @__errno_location() #11
  %2 = load i32, ptr %call19, align 4
  %call20 = tail call ptr @strerror(i32 noundef %2) #10
  tail call void (ptr, ptr, ...) @anetSetError(ptr noundef %err, ptr noundef nonnull %.str.1.sink, ptr noundef %call20)
  br label %return

return:                                           ; preds = %return.sink.split, %if.end11, %if.end
  %retval.0 = phi i32 [ 0, %if.end ], [ 0, %if.end11 ], [ -1, %return.sink.split ]
  ret i32 %retval.0
}